; Function Attrs: mustprogress uwtable
define internal fastcc noundef zeroext i1 @_ZN5osgeo4proj9operationL14hasIdentifiersERKN7dropbox6oxygen2nnISt10shared_ptrINS1_19CoordinateOperationEEEE(ptr noundef nonnull readonly align 8 captures(none) dereferenceable(16) %0) unnamed_addr #2 {
  %2 = load ptr, ptr %0, align 8, !tbaa !115
  %3 = tail call noundef nonnull align 8 dereferenceable(24) ptr @_ZNK5osgeo4proj6common16IdentifiedObject11identifiersEv(ptr noundef nonnull align 8 dereferenceable(40) %2) #37
  %4 = load ptr, ptr %3, align 8, !tbaa !161
  %5 = getelementptr inbounds nuw i8, ptr %3, i64 8
  %6 = load ptr, ptr %5, align 8, !tbaa !161
  %7 = icmp eq ptr %4, %6
  br i1 %7, label %8, label %.critedge

8:                                                ; preds = %1
  %9 = load ptr, ptr %2, align 8, !tbaa !3
  %10 = icmp eq ptr %9, getelementptr inbounds nuw inrange(-16, 80) (i8, ptr @_ZTVN5osgeo4proj9operation21ConcatenatedOperationE, i64 16)
  br i1 %10, label %11, label %.critedge

11:                                               ; preds = %8
  %12 = tail call noundef nonnull align 8 dereferenceable(24) ptr @_ZNK5osgeo4proj9operation21ConcatenatedOperation10operationsEv(ptr noundef nonnull align 8 dereferenceable(80) %2)
  %13 = load ptr, ptr %12, align 8, !tbaa !113
  %14 = getelementptr inbounds nuw i8, ptr %12, i64 8
  %15 = load ptr, ptr %14, align 8, !tbaa !113
  %.not18 = icmp eq ptr %13, %15
  br i1 %.not18, label %.critedge, label %.lr.ph

.lr.ph:                                           ; preds = %11, %.lr.ph
  %.sroa.014.019 = phi ptr [ %17, %.lr.ph ], [ %13, %11 ]
  %16 = tail call fastcc noundef zeroext i1 @_ZN5osgeo4proj9operationL14hasIdentifiersERKN7dropbox6oxygen2nnISt10shared_ptrINS1_19CoordinateOperationEEEE(ptr noundef nonnull align 8 dereferenceable(16) %.sroa.014.019)
  %17 = getelementptr inbounds nuw i8, ptr %.sroa.014.019, i64 16
  %.not = icmp eq ptr %17, %15
  %or.cond = select i1 %16, i1 true, i1 %.not
  br i1 %or.cond, label %.critedge, label %.lr.ph

.critedge:                                        ; preds = %.lr.ph, %11, %8, %1
  %.0 = phi i1 [ true, %1 ], [ false, %8 ], [ false, %11 ], [ %16, %.lr.ph ]
  ret i1 %.0
}